; ModuleID = '16/30.c'
source_filename = "16/30.c"
target datalayout = "e-m:e-p270:32:32-p271:32:32-p272:64:64-i64:64-f80:128-n8:16:32:64-S128"
target triple = "x86_64-pc-linux-gnu"

@.str = private unnamed_addr constant [3 x i8] c"%d\00", align 1
@.str.1 = private unnamed_addr constant [6 x i8] c"00001\00", align 1

; Function Attrs: noinline nounwind uwtable
define dso_local i32 @main() #0 {
  %1 = alloca i32, align 4
  %2 = alloca [4 x i32], align 16
  %3 = alloca i32, align 4
  %4 = alloca i32, align 4
  store i32 0, i32* %1, align 4
  %5 = call i32 (i8*, ...) @__isoc99_scanf(i8* getelementptr inbounds ([3 x i8], [3 x i8]* @.str, i64 0, i64 0), i32* %3)
  %6 = load i32, i32* %3, align 4
  %7 = icmp eq i32 %6, 10000
  br i1 %7, label %8, label %10

8:                                                ; preds = %0
  %9 = call i32 (i8*, ...) @printf(i8* getelementptr inbounds ([6 x i8], [6 x i8]* @.str.1, i64 0, i64 0))
  br label %55

10:                                               ; preds = %0
  store i32 0, i32* %4, align 4
  br label %11

11:                                               ; preds = %30, %10
  %12 = load i32, i32* %4, align 4
  %13 = icmp sle i32 %12, 3
  br i1 %13, label %14, label %33

14:                                               ; preds = %11
  %15 = load i32, i32* %3, align 4
  %16 = load i32, i32* %4, align 4
  %17 = add nsw i32 %16, 1
  %18 = sitofp i32 %17 to double
  %19 = call double @pow(double 1.000000e+01, double %18) #3
  %20 = fptosi double %19 to i32
  %21 = srem i32 %15, %20
  %22 = load i32, i32* %4, align 4
  %23 = sitofp i32 %22 to double
  %24 = call double @pow(double 1.000000e+01, double %23) #3
  %25 = fptosi double %24 to i32
  %26 = sdiv i32 %21, %25
  %27 = load i32, i32* %4, align 4
  %28 = sext i32 %27 to i64
  %29 = getelementptr inbounds [4 x i32], [4 x i32]* %2, i64 0, i64 %28
  store i32 %26, i32* %29, align 4
  br label %30

30:                                               ; preds = %14
  %31 = load i32, i32* %4, align 4
  %32 = add nsw i32 %31, 1
  store i32 %32, i32* %4, align 4
  br label %11

33:                                               ; preds = %11
  store i32 0, i32* %4, align 4
  br label %34

34:                                               ; preds = %51, %33
  %35 = load i32, i32* %4, align 4
  %36 = icmp sle i32 %35, 3
  br i1 %36, label %37, label %54

37:                                               ; preds = %34
  %38 = load i32, i32* %3, align 4
  %39 = sitofp i32 %38 to double
  %40 = load i32, i32* %4, align 4
  %41 = sitofp i32 %40 to double
  %42 = call double @pow(double 1.000000e+01, double %41) #3
  %43 = fcmp oge double %39, %42
  br i1 %43, label %44, label %50

44:                                               ; preds = %37
  %45 = load i32, i32* %4, align 4
  %46 = sext i32 %45 to i64
  %47 = getelementptr inbounds [4 x i32], [4 x i32]* %2, i64 0, i64 %46
  %48 = load i32, i32* %47, align 4
  %49 = call i32 (i8*, ...) @printf(i8* getelementptr inbounds ([3 x i8], [3 x i8]* @.str, i64 0, i64 0), i32 %48)
  br label %50

50:                                               ; preds = %44, %37
  br label %51

51:                                               ; preds = %50
  %52 = load i32, i32* %4, align 4
  %53 = add nsw i32 %52, 1
  store i32 %53, i32* %4, align 4
  br label %34

54:                                               ; preds = %34
  br label %55

55:                                               ; preds = %54, %8
  ret i32 0
}

declare dso_local i32 @__isoc99_scanf(i8*, ...) #1

declare dso_local i32 @printf(i8*, ...) #1

; Function Attrs: nounwind
declare dso_local double @pow(double, double) #2


!llvm.module.flags = !{!0}
!llvm.ident = !{!1}

!0 = !{i32 1, !"wchar_size", i32 4}
!1 = !{!"clang version 10.0.0-4ubuntu1 "}
